; Function Attrs: mustprogress uwtable
define hidden void @_ZN3mbp14project_plugin5eraseER10ref_vectorI4expr11ast_managerERj(ptr noundef nonnull readonly align 8 captures(none) dereferenceable(16) %0, ptr noundef nonnull align 4 captures(none) dereferenceable(4) %1) local_unnamed_addr #3 align 2 {
  %3 = getelementptr inbounds nuw i8, ptr %0, i64 8
  %4 = load ptr, ptr %3, align 8, !tbaa !3
  %5 = icmp eq ptr %4, null
  br i1 %5, label %_ZNK15ref_vector_coreI4expr19ref_manager_wrapperIS0_11ast_managerEE4backEv.exit, label %6

6:                                                ; preds = %2
  %7 = getelementptr inbounds i8, ptr %4, i64 -4
  %8 = load i32, ptr %7, align 4, !tbaa !10
  %9 = add i32 %8, -1
  %10 = zext i32 %9 to i64
  br label %_ZNK15ref_vector_coreI4expr19ref_manager_wrapperIS0_11ast_managerEE4backEv.exit

_ZNK15ref_vector_coreI4expr19ref_manager_wrapperIS0_11ast_managerEE4backEv.exit: ; preds = %2, %6
  %.0.i.i.i = phi i64 [ %10, %6 ], [ 4294967295, %2 ]
  %11 = getelementptr inbounds nuw ptr, ptr %4, i64 %.0.i.i.i
  %12 = load ptr, ptr %11, align 8, !tbaa !12
  %13 = load i32, ptr %1, align 4, !tbaa !10
  %14 = zext i32 %13 to i64
  %15 = getelementptr inbounds nuw ptr, ptr %4, i64 %14
  %16 = load ptr, ptr %0, align 8, !tbaa !43
  %.not.i.i = icmp eq ptr %12, null
  br i1 %.not.i.i, label %_ZN11ast_manager7inc_refEP3ast.exit.i, label %17

17:                                               ; preds = %_ZNK15ref_vector_coreI4expr19ref_manager_wrapperIS0_11ast_managerEE4backEv.exit
  %18 = getelementptr inbounds nuw i8, ptr %12, i64 8
  %19 = load i32, ptr %18, align 4, !tbaa !30
  %20 = add i32 %19, 1
  store i32 %20, ptr %18, align 4, !tbaa !30
  br label %_ZN11ast_manager7inc_refEP3ast.exit.i

_ZN11ast_manager7inc_refEP3ast.exit.i:            ; preds = %17, %_ZNK15ref_vector_coreI4expr19ref_manager_wrapperIS0_11ast_managerEE4backEv.exit
  %21 = load ptr, ptr %15, align 8, !tbaa !12
  %.not.i3.i = icmp eq ptr %21, null
  br i1 %.not.i3.i, label %_ZN6vectorIP4exprLb0EjE4backEv.exit.i, label %22

22:                                               ; preds = %_ZN11ast_manager7inc_refEP3ast.exit.i
  %23 = getelementptr inbounds nuw i8, ptr %21, i64 8
  %24 = load i32, ptr %23, align 4, !tbaa !30
  %25 = add i32 %24, -1
  store i32 %25, ptr %23, align 4, !tbaa !30
  %26 = icmp eq i32 %25, 0
  br i1 %26, label %_ZN10ref_vectorI4expr11ast_managerE11element_refaSEPS0_.exit, label %_ZN6vectorIP4exprLb0EjE4backEv.exit.i

_ZN10ref_vectorI4expr11ast_managerE11element_refaSEPS0_.exit: ; preds = %22
  tail call void @_ZN11ast_manager11delete_nodeEP3ast(ptr noundef nonnull align 8 dereferenceable(976) %16, ptr noundef nonnull %21)
  %.pre = load ptr, ptr %3, align 8, !tbaa !3, !nonnull !46, !noundef !46
  br label %_ZN6vectorIP4exprLb0EjE4backEv.exit.i

_ZN6vectorIP4exprLb0EjE4backEv.exit.i:            ; preds = %22, %_ZN11ast_manager7inc_refEP3ast.exit.i, %_ZN10ref_vectorI4expr11ast_managerE11element_refaSEPS0_.exit
  %27 = phi ptr [ %.pre, %_ZN10ref_vectorI4expr11ast_managerE11element_refaSEPS0_.exit ], [ %4, %_ZN11ast_manager7inc_refEP3ast.exit.i ], [ %4, %22 ]
  store ptr %12, ptr %15, align 8, !tbaa !12
  %28 = getelementptr inbounds i8, ptr %27, i64 -4
  %29 = load i32, ptr %28, align 4, !tbaa !10
  %30 = add i32 %29, -1
  %31 = zext i32 %30 to i64
  %32 = getelementptr inbounds nuw ptr, ptr %27, i64 %31
  %33 = load ptr, ptr %32, align 8, !tbaa !12
  %34 = getelementptr inbounds i8, ptr %27, i64 -4
  store i32 %30, ptr %34, align 4, !tbaa !10
  %35 = load ptr, ptr %0, align 8, !tbaa !43
  %.not.i.i.i.i = icmp eq ptr %33, null
  br i1 %.not.i.i.i.i, label %_ZN15ref_vector_coreI4expr19ref_manager_wrapperIS0_11ast_managerEE8pop_backEv.exit, label %36

36:                                               ; preds = %_ZN6vectorIP4exprLb0EjE4backEv.exit.i
  %37 = getelementptr inbounds nuw i8, ptr %33, i64 8
  %38 = load i32, ptr %37, align 4, !tbaa !30
  %39 = add i32 %38, -1
  store i32 %39, ptr %37, align 4, !tbaa !30
  %40 = icmp eq i32 %39, 0
  br i1 %40, label %41, label %_ZN15ref_vector_coreI4expr19ref_manager_wrapperIS0_11ast_managerEE8pop_backEv.exit

41:                                               ; preds = %36
  tail call void @_ZN11ast_manager11delete_nodeEP3ast(ptr noundef nonnull align 8 dereferenceable(976) %35, ptr noundef nonnull %33)
  br label %_ZN15ref_vector_coreI4expr19ref_manager_wrapperIS0_11ast_managerEE8pop_backEv.exit

_ZN15ref_vector_coreI4expr19ref_manager_wrapperIS0_11ast_managerEE8pop_backEv.exit: ; preds = %_ZN6vectorIP4exprLb0EjE4backEv.exit.i, %36, %41
  %42 = load i32, ptr %1, align 4, !tbaa !10
  %43 = add i32 %42, -1
  store i32 %43, ptr %1, align 4, !tbaa !10
  ret void
}